target datalayout = "e-m:e-p270:32:32-p271:32:32-p272:64:64-i64:64-i128:128-f80:128-n8:16:32:64-S128"
target triple = "x86_64-pc-linux-gnu"

%struct._object = type { i64, ptr }
%"class.nanobind::object" = type { %"class.nanobind::handle" }
%"class.nanobind::handle" = type { ptr }
%struct.PyBase = type { %struct.Base, %"struct.nanobind::detail::trampoline" }
%struct.Base = type { ptr }
%"struct.nanobind::detail::trampoline" = type { [7 x ptr] }
%"struct.nanobind::detail::ticket" = type <{ %"class.nanobind::handle", %"class.nanobind::handle", ptr, i32, [4 x i8] }>
%"class.nanobind::detail::accessor.1682" = type { ptr, ptr, %"class.nanobind::handle" }

@.str.59 = private unnamed_addr constant [11 x i8] c"modRefData\00", align 1

; Function Attrs: inlinehint mustprogress nounwind optsize uwtable
define internal void @_ZL10_Py_INCREFP7_object(ptr noundef %0) #11 {
  %2 = alloca ptr, align 8
  store ptr %0, ptr %2, align 8, !tbaa !14
  %3 = load ptr, ptr %2, align 8, !tbaa !14
  %4 = getelementptr inbounds nuw %struct._object, ptr %3, i32 0, i32 0
  %5 = load i64, ptr %4, align 8, !tbaa !35
  %6 = add nsw i64 %5, 1
  store i64 %6, ptr %4, align 8, !tbaa !35
  ret void
}

; Function Attrs: noinline noreturn nounwind optsize uwtable
define linkonce_odr hidden void @__clang_call_terminate(ptr noundef %0) #9 comdat {
  %2 = call ptr @__cxa_begin_catch(ptr %0) #25
  call void @_ZSt9terminatev() #27
  unreachable
}

; Function Attrs: inlinehint mustprogress optsize uwtable
define internal void @_ZL11_Py_XINCREFP7_object(ptr noundef %0) #10 {
  %2 = alloca ptr, align 8
  store ptr %0, ptr %2, align 8, !tbaa !14
  %3 = load ptr, ptr %2, align 8, !tbaa !14
  %4 = icmp ne ptr %3, null
  br i1 %4, label %5, label %7

5:                                                ; preds = %1
  %6 = load ptr, ptr %2, align 8, !tbaa !14
  call void @_ZL10_Py_INCREFP7_object(ptr noundef %6) #24
  br label %7

7:                                                ; preds = %5, %1
  ret void
}

; Function Attrs: mustprogress nounwind optsize uwtable
define linkonce_odr hidden noundef nonnull align 8 dereferenceable(8) ptr @_ZNKR8nanobind6handle7inc_refEv(ptr noundef nonnull align 8 dereferenceable(8) %0) #1 comdat align 2 personality ptr @__gxx_personality_v0 {
  %2 = alloca ptr, align 8
  store ptr %0, ptr %2, align 8, !tbaa !20
  %3 = load ptr, ptr %2, align 8
  %4 = getelementptr inbounds nuw %"class.nanobind::handle", ptr %3, i32 0, i32 0
  %5 = load ptr, ptr %4, align 8, !tbaa !22
  invoke void @_ZL11_Py_XINCREFP7_object(ptr noundef %5) #24
          to label %6 unwind label %7

6:                                                ; preds = %1
  ret ptr %3

7:                                                ; preds = %1
  %8 = landingpad { ptr, i32 }
          catch ptr null
  %9 = extractvalue { ptr, i32 } %8, 0
  call void @__clang_call_terminate(ptr %9) #27
  unreachable
}

; Function Attrs: alwaysinline mustprogress nounwind optsize uwtable
define linkonce_odr hidden noundef ptr @_ZNK8nanobind6handle3ptrEv(ptr noundef nonnull align 8 dereferenceable(8) %0) #7 comdat align 2 {
  %2 = alloca ptr, align 8
  store ptr %0, ptr %2, align 8, !tbaa !20
  %3 = load ptr, ptr %2, align 8
  %4 = getelementptr inbounds nuw %"class.nanobind::handle", ptr %3, i32 0, i32 0
  %5 = load ptr, ptr %4, align 8, !tbaa !22
  ret ptr %5
}

; Function Attrs: mustprogress nounwind optsize uwtable
define linkonce_odr hidden void @_ZN8nanobind6objectC2ENS_6handleENS_6detail8borrow_tE(ptr noundef nonnull align 8 dereferenceable(8) %0, ptr %1) unnamed_addr #1 comdat align 2 {
  %3 = alloca %"class.nanobind::handle", align 8
  %4 = alloca ptr, align 8
  %5 = getelementptr inbounds nuw %"class.nanobind::handle", ptr %3, i32 0, i32 0
  store ptr %1, ptr %5, align 8
  store ptr %0, ptr %4, align 8, !tbaa !33
  %6 = load ptr, ptr %4, align 8
  call void @llvm.memcpy.p0.p0.i64(ptr align 8 %6, ptr align 8 %3, i64 8, i1 false)
  %7 = call noundef nonnull align 8 dereferenceable(8) ptr @_ZNKR8nanobind6handle7inc_refEv(ptr noundef nonnull align 8 dereferenceable(8) %6) #26
  ret void
}

; Function Attrs: mustprogress nounwind optsize uwtable
define linkonce_odr hidden void @_ZN8nanobind6detail8accessorINS0_8obj_attrEEC2INS_6objectEEENS_6handleEOT_(ptr noundef nonnull align 8 dereferenceable(24) %0, ptr %1, ptr noundef nonnull align 8 dereferenceable(8) %2) unnamed_addr #1 comdat align 2 {
  %4 = alloca %"class.nanobind::handle", align 8
  %5 = alloca ptr, align 8
  %6 = alloca ptr, align 8
  %7 = getelementptr inbounds nuw %"class.nanobind::handle", ptr %4, i32 0, i32 0
  store ptr %1, ptr %7, align 8
  store ptr %0, ptr %5, align 8, !tbaa !3311
  store ptr %2, ptr %6, align 8, !tbaa !33
  %8 = load ptr, ptr %5, align 8
  %9 = getelementptr inbounds nuw %"class.nanobind::detail::accessor.1682", ptr %8, i32 0, i32 0
  %10 = call noundef ptr @_ZNK8nanobind6handle3ptrEv(ptr noundef nonnull align 8 dereferenceable(8) %4) #24
  store ptr %10, ptr %9, align 8, !tbaa !3315
  %11 = getelementptr inbounds nuw %"class.nanobind::detail::accessor.1682", ptr %8, i32 0, i32 1
  store ptr null, ptr %11, align 8, !tbaa !3313
  %12 = getelementptr inbounds nuw %"class.nanobind::detail::accessor.1682", ptr %8, i32 0, i32 2
  %13 = load ptr, ptr %6, align 8, !tbaa !33
  call void @llvm.memcpy.p0.p0.i64(ptr align 8 %12, ptr align 8 %13, i64 8, i1 false)
  ret void
}

; Function Attrs: alwaysinline mustprogress optsize uwtable
define linkonce_odr hidden void @_ZN8nanobind6borrowINS_6objectEEET_NS_6handleE(ptr dead_on_unwind noalias writable sret(%"class.nanobind::object") align 8 %0, ptr %1) #5 comdat {
  %3 = alloca ptr, align 8
  %4 = alloca %"class.nanobind::handle", align 8
  %5 = alloca %"class.nanobind::handle", align 8
  store ptr %0, ptr %3, align 8
  %6 = getelementptr inbounds nuw %"class.nanobind::handle", ptr %4, i32 0, i32 0
  store ptr %1, ptr %6, align 8
  call void @llvm.memcpy.p0.p0.i64(ptr align 8 %5, ptr align 8 %4, i64 8, i1 false)
  %7 = getelementptr inbounds nuw %"class.nanobind::handle", ptr %5, i32 0, i32 0
  %8 = load ptr, ptr %7, align 8
  call void @_ZN8nanobind6objectC2ENS_6handleENS_6detail8borrow_tE(ptr noundef nonnull align 8 dereferenceable(8) %0, ptr %8) #24
  ret void
}

; Function Attrs: mustprogress nounwind optsize uwtable
define linkonce_odr hidden noundef nonnull align 8 dereferenceable(8) ptr @_ZNK8nanobind6detail3apiINS_6handleEE7derivedEv(ptr noundef nonnull align 1 dereferenceable(1) %0) #1 comdat align 2 {
  %2 = alloca ptr, align 8
  store ptr %0, ptr %2, align 8, !tbaa !196
  %3 = load ptr, ptr %2, align 8
  ret ptr %3
}

; Function Attrs: alwaysinline mustprogress nounwind optsize uwtable
define linkonce_odr hidden void @_ZN8nanobind6handleC2EPK7_object(ptr noundef nonnull align 8 dereferenceable(8) %0, ptr noundef %1) unnamed_addr #7 comdat align 2 {
  %3 = alloca ptr, align 8
  %4 = alloca ptr, align 8
  store ptr %0, ptr %3, align 8, !tbaa !20
  store ptr %1, ptr %4, align 8, !tbaa !14
  %5 = load ptr, ptr %3, align 8
  %6 = getelementptr inbounds nuw %"class.nanobind::handle", ptr %5, i32 0, i32 0
  %7 = load ptr, ptr %4, align 8, !tbaa !14
  store ptr %7, ptr %6, align 8, !tbaa !22
  ret void
}

; Function Attrs: mustprogress nounwind optsize uwtable
define linkonce_odr hidden void @_ZN8nanobind6handleC2Ev(ptr noundef nonnull align 8 dereferenceable(8) %0) unnamed_addr #1 comdat align 2 {
  %2 = alloca ptr, align 8
  store ptr %0, ptr %2, align 8, !tbaa !20
  %3 = load ptr, ptr %2, align 8
  %4 = getelementptr inbounds nuw %"class.nanobind::handle", ptr %3, i32 0, i32 0
  store ptr null, ptr %4, align 8, !tbaa !22
  ret void
}

; Function Attrs: alwaysinline mustprogress nounwind optsize uwtable
define linkonce_odr hidden void @_ZN8nanobind6detail6ticketD2Ev(ptr noundef nonnull align 8 dereferenceable(28) %0) unnamed_addr #7 comdat align 2 {
  %2 = alloca ptr, align 8
  store ptr %0, ptr %2, align 8, !tbaa !3303
  %3 = load ptr, ptr %2, align 8
  call void @_ZN8nanobind6detail16trampoline_leaveEPNS0_6ticketE(ptr noundef %3) #26
  ret void
}

; Function Attrs: mustprogress nounwind optsize uwtable
define linkonce_odr hidden void @_ZN8nanobind6objectD2Ev(ptr noundef nonnull align 8 dereferenceable(8) %0) unnamed_addr #1 comdat align 2 {
  %2 = alloca ptr, align 8
  store ptr %0, ptr %2, align 8, !tbaa !33
  %3 = load ptr, ptr %2, align 8
  %4 = call noundef nonnull align 8 dereferenceable(8) ptr @_ZNKR8nanobind6handle7dec_refEv(ptr noundef nonnull align 8 dereferenceable(8) %3) #26
  ret void
}

; Function Attrs: alwaysinline mustprogress nounwind optsize uwtable
define linkonce_odr hidden void @_ZN8nanobind4castIvNS_6handleEEET_RKNS_6detail3apiIT0_EEb(ptr noundef nonnull align 1 dereferenceable(1) %0, i1 noundef zeroext %1) #7 comdat {
  %3 = alloca ptr, align 8
  %4 = alloca i8, align 1
  store ptr %0, ptr %3, align 8, !tbaa !196
  %5 = zext i1 %1 to i8
  store i8 %5, ptr %4, align 1, !tbaa !45
  ret void
}

; Function Attrs: mustprogress optsize uwtable
define linkonce_odr hidden void @_ZNK8nanobind6detail3apiINS_6handleEE4attrES2_(ptr dead_on_unwind noalias writable sret(%"class.nanobind::detail::accessor.1682") align 8 %0, ptr noundef nonnull align 1 dereferenceable(1) %1, ptr %2) #3 comdat align 2 personality ptr @__gxx_personality_v0 {
  %4 = alloca ptr, align 8
  %5 = alloca %"class.nanobind::handle", align 8
  %6 = alloca ptr, align 8
  %7 = alloca %"class.nanobind::handle", align 8
  %8 = alloca %"class.nanobind::object", align 8
  %9 = alloca %"class.nanobind::handle", align 8
  %10 = alloca ptr, align 8
  %11 = alloca i32, align 4
  store ptr %0, ptr %4, align 8
  %12 = getelementptr inbounds nuw %"class.nanobind::handle", ptr %5, i32 0, i32 0
  store ptr %2, ptr %12, align 8
  store ptr %1, ptr %6, align 8, !tbaa !196
  %13 = load ptr, ptr %6, align 8
  %14 = call noundef nonnull align 8 dereferenceable(8) ptr @_ZNK8nanobind6detail3apiINS_6handleEE7derivedEv(ptr noundef nonnull align 1 dereferenceable(1) %13) #24
  call void @llvm.memcpy.p0.p0.i64(ptr align 8 %7, ptr align 8 %14, i64 8, i1 false)
  call void @llvm.lifetime.start.p0(i64 8, ptr %8) #25
  call void @llvm.memcpy.p0.p0.i64(ptr align 8 %9, ptr align 8 %5, i64 8, i1 false)
  %15 = getelementptr inbounds nuw %"class.nanobind::handle", ptr %9, i32 0, i32 0
  %16 = load ptr, ptr %15, align 8
  call void @_ZN8nanobind6borrowINS_6objectEEET_NS_6handleE(ptr dead_on_unwind writable sret(%"class.nanobind::object") align 8 %8, ptr %16) #24
  %17 = getelementptr inbounds nuw %"class.nanobind::handle", ptr %7, i32 0, i32 0
  %18 = load ptr, ptr %17, align 8
  invoke void @_ZN8nanobind6detail8accessorINS0_8obj_attrEEC2INS_6objectEEENS_6handleEOT_(ptr noundef nonnull align 8 dereferenceable(24) %0, ptr %18, ptr noundef nonnull align 8 dereferenceable(8) %8) #24
          to label %19 unwind label %20

19:                                               ; preds = %3
  call void @_ZN8nanobind6objectD2Ev(ptr noundef nonnull align 8 dereferenceable(8) %8) #26
  call void @llvm.lifetime.end.p0(i64 8, ptr %8) #25
  ret void

20:                                               ; preds = %3
  %21 = landingpad { ptr, i32 }
          cleanup
  %22 = extractvalue { ptr, i32 } %21, 0
  store ptr %22, ptr %10, align 8
  %23 = extractvalue { ptr, i32 } %21, 1
  store i32 %23, ptr %11, align 4
  call void @_ZN8nanobind6objectD2Ev(ptr noundef nonnull align 8 dereferenceable(8) %8) #26
  call void @llvm.lifetime.end.p0(i64 8, ptr %8) #25
  br label %24

24:                                               ; preds = %20
  %25 = load ptr, ptr %10, align 8
  %26 = load i32, ptr %11, align 4
  %27 = insertvalue { ptr, i32 } poison, ptr %25, 0
  %28 = insertvalue { ptr, i32 } %27, i32 %26, 1
  resume { ptr, i32 } %28
}

; Function Attrs: alwaysinline mustprogress optsize uwtable
define linkonce_odr hidden ptr @_ZNK8nanobind6detail10trampolineILm3EE4baseEv(ptr noundef nonnull align 8 dereferenceable(56) %0) #5 comdat align 2 {
  %2 = alloca %"class.nanobind::handle", align 8
  %3 = alloca ptr, align 8
  store ptr %0, ptr %3, align 8, !tbaa !3301
  %4 = load ptr, ptr %3, align 8
  %5 = getelementptr inbounds nuw %"struct.nanobind::detail::trampoline", ptr %4, i32 0, i32 0
  %6 = getelementptr inbounds [7 x ptr], ptr %5, i64 0, i64 0
  %7 = load ptr, ptr %6, align 8, !tbaa !41
  call void @_ZN8nanobind6handleC2EPK7_object(ptr noundef nonnull align 8 dereferenceable(8) %2, ptr noundef %7) #24
  %8 = getelementptr inbounds nuw %"class.nanobind::handle", ptr %2, i32 0, i32 0
  %9 = load ptr, ptr %8, align 8
  ret ptr %9
}

; Function Attrs: alwaysinline mustprogress optsize uwtable
define linkonce_odr hidden void @_ZN8nanobind6detail6ticketC2ILm3EEERKNS0_10trampolineIXT_EEEPKcb(ptr noundef nonnull align 8 dereferenceable(28) %0, ptr noundef nonnull align 8 dereferenceable(56) %1, ptr noundef %2, i1 noundef zeroext %3) unnamed_addr #5 comdat align 2 {
  %5 = alloca ptr, align 8
  %6 = alloca ptr, align 8
  %7 = alloca ptr, align 8
  %8 = alloca i8, align 1
  store ptr %0, ptr %5, align 8, !tbaa !3303
  store ptr %1, ptr %6, align 8, !tbaa !3301
  store ptr %2, ptr %7, align 8, !tbaa !39
  %9 = zext i1 %3 to i8
  store i8 %9, ptr %8, align 1, !tbaa !45
  %10 = load ptr, ptr %5, align 8
  %11 = getelementptr inbounds nuw %"struct.nanobind::detail::ticket", ptr %10, i32 0, i32 0
  call void @_ZN8nanobind6handleC2Ev(ptr noundef nonnull align 8 dereferenceable(8) %11) #26
  %12 = getelementptr inbounds nuw %"struct.nanobind::detail::ticket", ptr %10, i32 0, i32 1
  call void @_ZN8nanobind6handleC2Ev(ptr noundef nonnull align 8 dereferenceable(8) %12) #26
  %13 = getelementptr inbounds nuw %"struct.nanobind::detail::ticket", ptr %10, i32 0, i32 2
  store ptr null, ptr %13, align 8, !tbaa !3305
  %14 = getelementptr inbounds nuw %"struct.nanobind::detail::ticket", ptr %10, i32 0, i32 3
  store i32 0, ptr %14, align 8, !tbaa !3308
  %15 = load ptr, ptr %6, align 8, !tbaa !3301
  %16 = getelementptr inbounds nuw %"struct.nanobind::detail::trampoline", ptr %15, i32 0, i32 0
  %17 = getelementptr inbounds [7 x ptr], ptr %16, i64 0, i64 0
  %18 = load ptr, ptr %7, align 8, !tbaa !39
  %19 = load i8, ptr %8, align 1, !tbaa !45, !range !47, !noundef !48
  %20 = trunc i8 %19 to i1
  call void @_ZN8nanobind6detail16trampoline_enterEPPvmPKcbPNS0_6ticketE(ptr noundef %17, i64 noundef 3, ptr noundef %18, i1 noundef zeroext %20, ptr noundef %10) #24
  ret void
}

; Function Attrs: mustprogress optsize uwtable
define internal void @_ZZL28nanobind_init_test_eigen_extRN8nanobind7module_EEN6PyBase10modRefDataEN5Eigen3RefINS3_6MatrixIdLin1ELi1ELi0ELin1ELi1EEELi0ENS3_11InnerStrideILi1EEEEE(ptr noundef nonnull align 8 dereferenceable(64) %0, ptr noundef %1) unnamed_addr #3 align 2 personality ptr @__gxx_personality_v0 {
  %3 = alloca ptr, align 8
  %4 = alloca ptr, align 8
  %5 = alloca %"struct.nanobind::detail::ticket", align 8
  %6 = alloca %"class.nanobind::object", align 8
  %7 = alloca %"class.nanobind::detail::accessor.1682", align 8
  %8 = alloca %"class.nanobind::handle", align 8
  %9 = alloca ptr, align 8
  %10 = alloca i32, align 4
  %11 = alloca %"class.nanobind::handle", align 8
  store ptr %0, ptr %3, align 8, !tbaa !3299
  store ptr %1, ptr %4, align 8, !tbaa !3264
  %12 = load ptr, ptr %3, align 8
  call void @llvm.lifetime.start.p0(i64 32, ptr %5) #25
  %13 = getelementptr inbounds nuw %struct.PyBase, ptr %12, i32 0, i32 1
  call void @_ZN8nanobind6detail6ticketC2ILm3EEERKNS0_10trampolineIXT_EEEPKcb(ptr noundef nonnull align 8 dereferenceable(28) %5, ptr noundef nonnull align 8 dereferenceable(56) %13, ptr noundef @.str.59, i1 noundef zeroext true) #24
  call void @llvm.lifetime.start.p0(i64 8, ptr %6) #25
  call void @llvm.lifetime.start.p0(i64 24, ptr %7) #25
  call void @llvm.lifetime.start.p0(i64 8, ptr %8) #25
  %14 = getelementptr inbounds nuw %struct.PyBase, ptr %12, i32 0, i32 1
  %15 = invoke ptr @_ZNK8nanobind6detail10trampolineILm3EE4baseEv(ptr noundef nonnull align 8 dereferenceable(56) %14) #24
          to label %16 unwind label %24

16:                                               ; preds = %2
  %17 = getelementptr inbounds nuw %"class.nanobind::handle", ptr %8, i32 0, i32 0
  store ptr %15, ptr %17, align 8
  %18 = getelementptr inbounds nuw %"struct.nanobind::detail::ticket", ptr %5, i32 0, i32 1
  call void @llvm.memcpy.p0.p0.i64(ptr align 8 %11, ptr align 8 %18, i64 8, i1 false)
  %19 = getelementptr inbounds nuw %"class.nanobind::handle", ptr %11, i32 0, i32 0
  %20 = load ptr, ptr %19, align 8
  invoke void @_ZNK8nanobind6detail3apiINS_6handleEE4attrES2_(ptr dead_on_unwind writable sret(%"class.nanobind::detail::accessor.1682") align 8 %7, ptr noundef nonnull align 1 dereferenceable(1) %8, ptr %20) #24
          to label %21 unwind label %24

21:                                               ; preds = %16
  invoke void @_ZNK8nanobind6detail3apiINS0_8accessorINS0_8obj_attrEEEEclILNS_9rv_policyE1EJRN5Eigen3RefINS8_6MatrixIdLin1ELi1ELi0ELin1ELi1EEELi0ENS8_11InnerStrideILi1EEEEEEEENS_6objectEDpOT0_(ptr dead_on_unwind writable sret(%"class.nanobind::object") align 8 %6, ptr noundef nonnull align 1 dereferenceable(1) %7, ptr noundef nonnull align 8 dereferenceable(19) %1) #24
          to label %22 unwind label %28

22:                                               ; preds = %21
  invoke void @_ZN8nanobind4castIvNS_6handleEEET_RKNS_6detail3apiIT0_EEb(ptr noundef nonnull align 1 dereferenceable(1) %6, i1 noundef zeroext true) #24
          to label %23 unwind label %32

23:                                               ; preds = %22
  call void @_ZN8nanobind6objectD2Ev(ptr noundef nonnull align 8 dereferenceable(8) %6) #26
  call void @_ZN8nanobind6detail8accessorINS0_8obj_attrEED2Ev(ptr noundef nonnull align 8 dereferenceable(24) %7) #26
  call void @llvm.lifetime.end.p0(i64 8, ptr %8) #25
  call void @llvm.lifetime.end.p0(i64 24, ptr %7) #25
  call void @llvm.lifetime.end.p0(i64 8, ptr %6) #25
  call void @_ZN8nanobind6detail6ticketD2Ev(ptr noundef nonnull align 8 dereferenceable(28) %5) #26
  call void @llvm.lifetime.end.p0(i64 32, ptr %5) #25
  ret void

24:                                               ; preds = %16, %2
  %25 = landingpad { ptr, i32 }
          cleanup
  %26 = extractvalue { ptr, i32 } %25, 0
  store ptr %26, ptr %9, align 8
  %27 = extractvalue { ptr, i32 } %25, 1
  store i32 %27, ptr %10, align 4
  br label %37

28:                                               ; preds = %21
  %29 = landingpad { ptr, i32 }
          cleanup
  %30 = extractvalue { ptr, i32 } %29, 0
  store ptr %30, ptr %9, align 8
  %31 = extractvalue { ptr, i32 } %29, 1
  store i32 %31, ptr %10, align 4
  br label %36

32:                                               ; preds = %22
  %33 = landingpad { ptr, i32 }
          cleanup
  %34 = extractvalue { ptr, i32 } %33, 0
  store ptr %34, ptr %9, align 8
  %35 = extractvalue { ptr, i32 } %33, 1
  store i32 %35, ptr %10, align 4
  call void @_ZN8nanobind6objectD2Ev(ptr noundef nonnull align 8 dereferenceable(8) %6) #26
  br label %36

36:                                               ; preds = %32, %28
  call void @_ZN8nanobind6detail8accessorINS0_8obj_attrEED2Ev(ptr noundef nonnull align 8 dereferenceable(24) %7) #26
  br label %37

37:                                               ; preds = %36, %24
  call void @llvm.lifetime.end.p0(i64 8, ptr %8) #25
  call void @llvm.lifetime.end.p0(i64 24, ptr %7) #25
  call void @llvm.lifetime.end.p0(i64 8, ptr %6) #25
  call void @_ZN8nanobind6detail6ticketD2Ev(ptr noundef nonnull align 8 dereferenceable(28) %5) #26
  call void @llvm.lifetime.end.p0(i64 32, ptr %5) #25
  br label %38

38:                                               ; preds = %37
  %39 = load ptr, ptr %9, align 8
  %40 = load i32, ptr %10, align 4
  %41 = insertvalue { ptr, i32 } poison, ptr %39, 0
  %42 = insertvalue { ptr, i32 } %41, i32 %40, 1
  resume { ptr, i32 } %42
}