; Function Attrs: mustprogress optsize uwtable
define internal void @_ZZL28nanobind_init_test_eigen_extRN8nanobind7module_EEN6PyBase10modRefDataEN5Eigen3RefINS3_6MatrixIdLin1ELi1ELi0ELin1ELi1EEELi0ENS3_11InnerStrideILi1EEEEE(ptr noundef nonnull align 8 dereferenceable(64) %0, ptr noundef %1) unnamed_addr #0 align 2 personality ptr @__gxx_personality_v0 {
  %3 = alloca %"class.nanobind::object", align 8
  %4 = alloca %"struct.nanobind::detail::ticket", align 8
  %5 = alloca %"class.nanobind::object", align 8
  %6 = alloca %"class.nanobind::detail::accessor.1682", align 8
  call void @llvm.lifetime.start.p0(i64 32, ptr nonnull %4) #32
  %7 = getelementptr inbounds nuw i8, ptr %0, i64 8
  %8 = getelementptr inbounds nuw i8, ptr %4, i64 8
  call void @llvm.memset.p0.i64(ptr noundef nonnull align 8 dereferenceable(28) %4, i8 0, i64 28, i1 false)
  call void @_ZN8nanobind6detail16trampoline_enterEPPvmPKcbPNS0_6ticketE(ptr noundef nonnull align 8 dereferenceable(56) %7, i64 noundef 3, ptr noundef nonnull @.str.59, i1 noundef zeroext true, ptr noundef nonnull align 8 dereferenceable(28) %4) #31
  call void @llvm.lifetime.start.p0(i64 8, ptr nonnull %5) #32
  call void @llvm.lifetime.start.p0(i64 24, ptr nonnull %6) #32
  %9 = load ptr, ptr %7, align 8, !tbaa !145
  %.sroa.0.0.copyload = load ptr, ptr %8, align 8
  call void @llvm.experimental.noalias.scope.decl(metadata !1064)
  call void @llvm.lifetime.start.p0(i64 8, ptr nonnull %3) #32, !noalias !1064
  store ptr %.sroa.0.0.copyload, ptr %3, align 8, !noalias !1064
  %.not.i.i.i.i = icmp eq ptr %.sroa.0.0.copyload, null
  br i1 %.not.i.i.i.i, label %13, label %10

10:                                               ; preds = %2
  %11 = load i64, ptr %.sroa.0.0.copyload, align 8, !tbaa !110, !noalias !1064
  %12 = add nsw i64 %11, 1
  store i64 %12, ptr %.sroa.0.0.copyload, align 8, !tbaa !110, !noalias !1064
  br label %13

13:                                               ; preds = %10, %2
  %14 = ptrtoint ptr %.sroa.0.0.copyload to i64
  store ptr %9, ptr %6, align 8, !tbaa !1067, !alias.scope !1064
  %15 = getelementptr inbounds nuw i8, ptr %6, i64 8
  store ptr null, ptr %15, align 8, !tbaa !1069, !alias.scope !1064
  %16 = getelementptr inbounds nuw i8, ptr %6, i64 16
  store i64 %14, ptr %16, align 8, !alias.scope !1064
  %17 = call noundef nonnull align 8 dereferenceable(8) ptr @_ZNKR8nanobind6handle7dec_refEv(ptr noundef nonnull align 8 dereferenceable(8) %3) #33, !noalias !1064
  call void @llvm.lifetime.end.p0(i64 8, ptr nonnull %3) #32, !noalias !1064
  invoke void @_ZNK8nanobind6detail3apiINS0_8accessorINS0_8obj_attrEEEEclILNS_9rv_policyE1EJRN5Eigen3RefINS8_6MatrixIdLin1ELi1ELi0ELin1ELi1EEELi0ENS8_11InnerStrideILi1EEEEEEEENS_6objectEDpOT0_(ptr dead_on_unwind nonnull writable sret(%"class.nanobind::object") align 8 %5, ptr noundef nonnull align 1 dereferenceable(1) %6, ptr noundef nonnull align 8 dereferenceable(19) %1) #31
          to label %18 unwind label %20

18:                                               ; preds = %13
  %19 = call noundef nonnull align 8 dereferenceable(8) ptr @_ZNKR8nanobind6handle7dec_refEv(ptr noundef nonnull align 8 dereferenceable(8) %5) #33
  call void @_ZN8nanobind6detail8accessorINS0_8obj_attrEED2Ev(ptr noundef nonnull align 8 dereferenceable(24) %6) #33
  call void @llvm.lifetime.end.p0(i64 24, ptr nonnull %6) #32
  call void @llvm.lifetime.end.p0(i64 8, ptr nonnull %5) #32
  call void @_ZN8nanobind6detail16trampoline_leaveEPNS0_6ticketE(ptr noundef nonnull align 8 dereferenceable(28) %4) #33
  call void @llvm.lifetime.end.p0(i64 32, ptr nonnull %4) #32
  ret void

20:                                               ; preds = %13
  %21 = landingpad { ptr, i32 }
          cleanup
  call void @_ZN8nanobind6detail8accessorINS0_8obj_attrEED2Ev(ptr noundef nonnull align 8 dereferenceable(24) %6) #33
  call void @llvm.lifetime.end.p0(i64 24, ptr nonnull %6) #32
  call void @llvm.lifetime.end.p0(i64 8, ptr nonnull %5) #32
  call void @_ZN8nanobind6detail16trampoline_leaveEPNS0_6ticketE(ptr noundef nonnull align 8 dereferenceable(28) %4) #33
  call void @llvm.lifetime.end.p0(i64 32, ptr nonnull %4) #32
  resume { ptr, i32 } %21
}